target datalayout = "e-m:e-p270:32:32-p271:32:32-p272:64:64-i64:64-i128:128-f80:128-n8:16:32:64-S128"
target triple = "x86_64-pc-linux-gnu"

@.str.120 = private unnamed_addr constant [6 x i8] c"UNDEF\00", align 1

; Function Attrs: nounwind uwtable
define internal i32 @only_nomd(ptr noundef %0) #0 {
  %2 = alloca ptr, align 8
  %3 = alloca [100 x i8], align 16
  %4 = alloca i32, align 4
  store ptr %0, ptr %2, align 8, !tbaa !19
  call void @llvm.lifetime.start.p0(i64 100, ptr %3) #7
  call void @llvm.lifetime.start.p0(i64 4, ptr %4) #7
  %5 = load ptr, ptr %2, align 8, !tbaa !19
  %6 = getelementptr inbounds [100 x i8], ptr %3, i64 0, i64 0
  %7 = call i32 @EVP_PKEY_get_default_digest_name(ptr noundef %5, ptr noundef %6, i64 noundef 100)
  store i32 %7, ptr %4, align 4, !tbaa !4
  %8 = load i32, ptr %4, align 4, !tbaa !4
  %9 = icmp eq i32 %8, 2
  br i1 %9, label %10, label %14

10:                                               ; preds = %1
  %11 = getelementptr inbounds [100 x i8], ptr %3, i64 0, i64 0
  %12 = call i32 @strcmp(ptr noundef %11, ptr noundef @.str.120) #8
  %13 = icmp eq i32 %12, 0
  br label %14

14:                                               ; preds = %10, %1
  %15 = phi i1 [ false, %1 ], [ %13, %10 ]
  %16 = zext i1 %15 to i32
  call void @llvm.lifetime.end.p0(i64 4, ptr %4) #7
  call void @llvm.lifetime.end.p0(i64 100, ptr %3) #7
  ret i32 %16
}