; Function Attrs: nounwind uwtable
define internal fastcc range(i32 0, 2) i32 @only_nomd(ptr noundef %0) unnamed_addr #0 {
  %2 = alloca [100 x i8], align 16
  call void @llvm.lifetime.start.p0(i64 100, ptr nonnull %2) #7
  %3 = call i32 @EVP_PKEY_get_default_digest_name(ptr noundef %0, ptr noundef nonnull %2, i64 noundef 100) #7
  %4 = icmp eq i32 %3, 2
  br i1 %4, label %5, label %8

5:                                                ; preds = %1
  %bcmp = call i32 @bcmp(ptr noundef nonnull dereferenceable(6) %2, ptr noundef nonnull dereferenceable(6) @.str.120, i64 6)
  %6 = icmp eq i32 %bcmp, 0
  %7 = zext i1 %6 to i32
  br label %8

8:                                                ; preds = %5, %1
  %9 = phi i32 [ 0, %1 ], [ %7, %5 ]
  call void @llvm.lifetime.end.p0(i64 100, ptr nonnull %2) #7
  ret i32 %9
}